target datalayout = "e-m:e-p270:32:32-p271:32:32-p272:64:64-i64:64-i128:128-f80:128-n8:16:32:64-S128"
target triple = "x86_64-pc-linux-gnu"

%struct.expert_field = type { i32, i32 }
%struct.tcpcl_dissect_ctx_t = type { ptr, ptr, i8, ptr, ptr, ptr }
%struct.tcpcl_peer_t = type { %struct._address, i32, i8, ptr, i8, i8, ptr, i16, i64, i64, ptr, i8, ptr, ptr }
%struct._address = type { i32, i32, ptr, ptr }
%struct.nstime_t = type { i64, i32 }
%struct.tcpcl_frame_loc_t = type { i32, i32, i32 }
%struct.tcpcl_transfer_t = type { ptr, ptr, ptr }
%struct._proto_node = type { ptr, ptr, ptr, ptr, ptr, ptr, ptr }
%struct.field_info = type { ptr, i32, i32, i32, i32, i32, i32, ptr, ptr, ptr, i32, i32 }
%struct.tcpcl_seg_meta = type { %struct.tcpcl_frame_loc_t, %struct.nstime_t, i8, i64, ptr, ptr }

@hf_tcpclv4_xfer_refuse_related_seg = internal global i32 0, align 4
@ei_tcpclv4_xfer_refuse_no_transfer = internal global %struct.expert_field zeroinitializer, align 4

; Function Attrs: inlinehint nounwind null_pointer_is_valid sspstrong uwtable
define internal void @proto_item_set_generated(ptr noundef %0) #4 {
  %2 = alloca ptr, align 8
  store ptr %0, ptr %2, align 8
  %3 = load ptr, ptr %2, align 8
  %4 = icmp ne ptr %3, null
  br i1 %4, label %5, label %24

5:                                                ; preds = %1
  br label %6

6:                                                ; preds = %5
  %7 = load ptr, ptr %2, align 8
  %8 = getelementptr inbounds nuw %struct._proto_node, ptr %7, i32 0, i32 5
  %9 = load ptr, ptr %8, align 8
  %10 = icmp ne ptr %9, null
  br i1 %10, label %11, label %22

11:                                               ; preds = %6
  %12 = load ptr, ptr %2, align 8
  %13 = getelementptr inbounds nuw %struct._proto_node, ptr %12, i32 0, i32 5
  %14 = load ptr, ptr %13, align 8
  %15 = getelementptr inbounds nuw %struct.field_info, ptr %14, i32 0, i32 6
  %16 = load i32, ptr %15, align 4
  %17 = or i32 %16, 2
  %18 = load ptr, ptr %2, align 8
  %19 = getelementptr inbounds nuw %struct._proto_node, ptr %18, i32 0, i32 5
  %20 = load ptr, ptr %19, align 8
  %21 = getelementptr inbounds nuw %struct.field_info, ptr %20, i32 0, i32 6
  store i32 %17, ptr %21, align 4
  br label %22

22:                                               ; preds = %11, %6
  br label %23

23:                                               ; preds = %22
  br label %24

24:                                               ; preds = %23, %1
  ret void
}

; Function Attrs: null_pointer_is_valid sspstrong uwtable
define internal void @transfer_add_refuse(ptr noundef %0, i64 noundef %1, ptr noundef %2, ptr noundef %3, ptr noundef %4, ptr noundef %5) #0 {
  %7 = alloca ptr, align 8
  %8 = alloca i64, align 8
  %9 = alloca ptr, align 8
  %10 = alloca ptr, align 8
  %11 = alloca ptr, align 8
  %12 = alloca ptr, align 8
  %13 = alloca ptr, align 8
  %14 = alloca ptr, align 8
  %15 = alloca ptr, align 8
  %16 = alloca ptr, align 8
  store ptr %0, ptr %7, align 8
  store i64 %1, ptr %8, align 8
  store ptr %2, ptr %9, align 8
  store ptr %3, ptr %10, align 8
  store ptr %4, ptr %11, align 8
  store ptr %5, ptr %12, align 8
  call void @llvm.lifetime.start.p0(i64 8, ptr %13) #11
  %17 = load ptr, ptr %7, align 8
  %18 = getelementptr inbounds nuw %struct.tcpcl_dissect_ctx_t, ptr %17, i32 0, i32 4
  %19 = load ptr, ptr %18, align 8
  %20 = getelementptr inbounds nuw %struct.tcpcl_peer_t, ptr %19, i32 0, i32 13
  %21 = load ptr, ptr %20, align 8
  %22 = call ptr @wmem_map_lookup(ptr noundef %21, ptr noundef %8)
  store ptr %22, ptr %13, align 8
  call void @llvm.lifetime.start.p0(i64 8, ptr %14) #11
  store ptr null, ptr %14, align 8
  %23 = load ptr, ptr %13, align 8
  %24 = icmp ne ptr %23, null
  br i1 %24, label %25, label %46

25:                                               ; preds = %6
  call void @llvm.lifetime.start.p0(i64 8, ptr %15) #11
  %26 = load ptr, ptr %13, align 8
  %27 = getelementptr inbounds nuw %struct.tcpcl_transfer_t, ptr %26, i32 0, i32 0
  %28 = load ptr, ptr %27, align 8
  %29 = call ptr @wmem_list_tail(ptr noundef %28)
  store ptr %29, ptr %15, align 8
  %30 = load ptr, ptr %15, align 8
  %31 = icmp ne ptr %30, null
  br i1 %31, label %32, label %35

32:                                               ; preds = %25
  %33 = load ptr, ptr %15, align 8
  %34 = call ptr @wmem_list_frame_prev(ptr noundef %33)
  br label %36

35:                                               ; preds = %25
  br label %36

36:                                               ; preds = %35, %32
  %37 = phi ptr [ %34, %32 ], [ null, %35 ]
  store ptr %37, ptr %15, align 8
  %38 = load ptr, ptr %15, align 8
  %39 = icmp ne ptr %38, null
  br i1 %39, label %40, label %43

40:                                               ; preds = %36
  %41 = load ptr, ptr %15, align 8
  %42 = call ptr @wmem_list_frame_data(ptr noundef %41)
  br label %44

43:                                               ; preds = %36
  br label %44

44:                                               ; preds = %43, %40
  %45 = phi ptr [ %42, %40 ], [ null, %43 ]
  store ptr %45, ptr %14, align 8
  call void @llvm.lifetime.end.p0(i64 8, ptr %15) #11
  br label %46

46:                                               ; preds = %44, %6
  %47 = load ptr, ptr %14, align 8
  %48 = icmp ne ptr %47, null
  br i1 %48, label %49, label %59

49:                                               ; preds = %46
  call void @llvm.lifetime.start.p0(i64 8, ptr %16) #11
  %50 = load ptr, ptr %11, align 8
  %51 = load i32, ptr @hf_tcpclv4_xfer_refuse_related_seg, align 4
  %52 = load ptr, ptr %10, align 8
  %53 = load ptr, ptr %14, align 8
  %54 = getelementptr inbounds nuw %struct.tcpcl_seg_meta, ptr %53, i32 0, i32 0
  %55 = getelementptr inbounds nuw %struct.tcpcl_frame_loc_t, ptr %54, i32 0, i32 0
  %56 = load i32, ptr %55, align 8
  %57 = call ptr @proto_tree_add_uint(ptr noundef %50, i32 noundef %51, ptr noundef %52, i32 noundef 0, i32 noundef 0, i32 noundef %56)
  store ptr %57, ptr %16, align 8
  %58 = load ptr, ptr %16, align 8
  call void @proto_item_set_generated(ptr noundef %58)
  call void @llvm.lifetime.end.p0(i64 8, ptr %16) #11
  br label %63

59:                                               ; preds = %46
  %60 = load ptr, ptr %9, align 8
  %61 = load ptr, ptr %12, align 8
  %62 = call ptr @expert_add_info(ptr noundef %60, ptr noundef %61, ptr noundef @ei_tcpclv4_xfer_refuse_no_transfer)
  br label %63

63:                                               ; preds = %59, %49
  call void @llvm.lifetime.end.p0(i64 8, ptr %14) #11
  call void @llvm.lifetime.end.p0(i64 8, ptr %13) #11
  ret void
}