; Function Attrs: null_pointer_is_valid sspstrong uwtable
define internal fastcc void @transfer_add_refuse(ptr %.32.val.104.val, i64 noundef %0, ptr noundef %1, ptr noundef %2, ptr noundef %3, ptr noundef %4) unnamed_addr #0 {
  %6 = alloca i64, align 8
  store i64 %0, ptr %6, align 8
  %7 = call ptr @wmem_map_lookup(ptr noundef %.32.val.104.val, ptr noundef nonnull %6)
  %.not = icmp eq ptr %7, null
  br i1 %.not, label %.thread2, label %8

8:                                                ; preds = %5
  %9 = load ptr, ptr %7, align 8
  %10 = call ptr @wmem_list_tail(ptr noundef %9)
  %.not17 = icmp eq ptr %10, null
  br i1 %.not17, label %.thread2, label %11

11:                                               ; preds = %8
  %12 = call ptr @wmem_list_frame_prev(ptr noundef nonnull %10)
  %.not18 = icmp eq ptr %12, null
  br i1 %.not18, label %.thread2, label %13

13:                                               ; preds = %11
  %14 = call ptr @wmem_list_frame_data(ptr noundef nonnull %12)
  %.not19 = icmp eq ptr %14, null
  br i1 %.not19, label %.thread2, label %15

15:                                               ; preds = %13
  %16 = load i32, ptr @hf_tcpclv4_xfer_refuse_related_seg, align 4
  %17 = load i32, ptr %14, align 8
  %18 = call ptr @proto_tree_add_uint(ptr noundef %3, i32 noundef %16, ptr noundef %2, i32 noundef 0, i32 noundef 0, i32 noundef %17)
  %.not.i = icmp eq ptr %18, null
  br i1 %.not.i, label %proto_item_set_generated.exit, label %19

19:                                               ; preds = %15
  %20 = getelementptr inbounds nuw i8, ptr %18, i64 40
  %21 = load ptr, ptr %20, align 8
  %.not5.i = icmp eq ptr %21, null
  br i1 %.not5.i, label %proto_item_set_generated.exit, label %22

22:                                               ; preds = %19
  %23 = getelementptr inbounds nuw i8, ptr %21, i64 28
  %24 = load i32, ptr %23, align 4
  %25 = or i32 %24, 2
  store i32 %25, ptr %23, align 4
  br label %proto_item_set_generated.exit

.thread2:                                         ; preds = %8, %11, %5, %13
  %26 = call ptr @expert_add_info(ptr noundef %1, ptr noundef %4, ptr noundef nonnull @ei_tcpclv4_xfer_refuse_no_transfer)
  br label %proto_item_set_generated.exit

proto_item_set_generated.exit:                    ; preds = %22, %19, %15, %.thread2
  ret void
}